target datalayout = "e-m:e-p270:32:32-p271:32:32-p272:64:64-i64:64-i128:128-f80:128-n8:16:32:64-S128"
target triple = "x86_64-pc-linux-gnu"

%struct.rb_data_type_struct = type { ptr, %struct.anon, ptr, ptr, i64 }
%struct.anon = type { ptr, ptr, ptr, ptr, [1 x ptr] }

@ossl_cipher_type = internal constant %struct.rb_data_type_struct { ptr @.str.30, %struct.anon { ptr null, ptr @ossl_cipher_free, ptr null, ptr null, [1 x ptr] zeroinitializer }, ptr null, ptr null, i64 33 }, align 8
@rb_eRuntimeError = external global i64, align 8
@.str = private unnamed_addr constant [24 x i8] c"Cipher not initialized!\00", align 1
@eCipherError = internal global i64 0, align 8
@.str.51 = private unnamed_addr constant [29 x i8] c"cipher does not support AEAD\00", align 1
@.str.52 = private unnamed_addr constant [24 x i8] c"unable to set IV length\00", align 1

; Function Attrs: inlinehint nounwind sspstrong willreturn memory(none) uwtable
define internal zeroext i1 @RB_FIXNUM_P(i64 noundef %0) #10 {
  %2 = alloca i64, align 8
  store i64 %0, ptr %2, align 8, !tbaa !6
  %3 = load i64, ptr %2, align 8, !tbaa !6
  %4 = and i64 %3, 1
  %5 = icmp ne i64 %4, 0
  ret i1 %5
}

; Function Attrs: inlinehint nounwind sspstrong uwtable
define internal i32 @rb_num2int_inline(i64 noundef %0) #4 {
  %2 = alloca i64, align 8
  %3 = alloca i64, align 8
  store i64 %0, ptr %2, align 8, !tbaa !6
  call void @llvm.lifetime.start.p0(i64 8, ptr %3) #20
  %4 = load i64, ptr %2, align 8, !tbaa !6
  %5 = call zeroext i1 @RB_FIXNUM_P(i64 noundef %4) #24
  br i1 %5, label %6, label %9

6:                                                ; preds = %1
  %7 = load i64, ptr %2, align 8, !tbaa !6
  %8 = call i64 @rb_fix2int(i64 noundef %7)
  store i64 %8, ptr %3, align 8, !tbaa !6
  br label %12

9:                                                ; preds = %1
  %10 = load i64, ptr %2, align 8, !tbaa !6
  %11 = call i64 @rb_num2int(i64 noundef %10)
  store i64 %11, ptr %3, align 8, !tbaa !6
  br label %12

12:                                               ; preds = %9, %6
  %13 = load i64, ptr %3, align 8, !tbaa !6
  %14 = trunc i64 %13 to i32
  call void @llvm.lifetime.end.p0(i64 8, ptr %3) #20
  ret i32 %14
}

; Function Attrs: nounwind sspstrong uwtable
define internal i64 @ossl_cipher_set_iv_length(i64 noundef %0, i64 noundef %1) #0 {
  %3 = alloca i64, align 8
  %4 = alloca i64, align 8
  %5 = alloca i32, align 4
  %6 = alloca ptr, align 8
  store i64 %0, ptr %3, align 8, !tbaa !6
  store i64 %1, ptr %4, align 8, !tbaa !6
  call void @llvm.lifetime.start.p0(i64 4, ptr %5) #20
  %7 = load i64, ptr %4, align 8, !tbaa !6
  %8 = call i32 @rb_num2int_inline(i64 noundef %7)
  store i32 %8, ptr %5, align 4, !tbaa !22
  call void @llvm.lifetime.start.p0(i64 8, ptr %6) #20
  br label %9

9:                                                ; preds = %2
  br label %10

10:                                               ; preds = %9
  %11 = load i64, ptr %3, align 8, !tbaa !6
  %12 = call ptr @rb_check_typeddata(i64 noundef %11, ptr noundef @ossl_cipher_type)
  store ptr %12, ptr %6, align 8, !tbaa !10
  br label %13

13:                                               ; preds = %10
  br label %14

14:                                               ; preds = %13
  %15 = load ptr, ptr %6, align 8, !tbaa !10
  %16 = icmp ne ptr %15, null
  br i1 %16, label %19, label %17

17:                                               ; preds = %14
  %18 = load i64, ptr @rb_eRuntimeError, align 8, !tbaa !6
  call void (i64, ptr, ...) @ossl_raise(i64 noundef %18, ptr noundef @.str) #21
  unreachable

19:                                               ; preds = %14
  br label %20

20:                                               ; preds = %19
  br label %21

21:                                               ; preds = %20
  %22 = load ptr, ptr %6, align 8, !tbaa !10
  %23 = call ptr @EVP_CIPHER_CTX_cipher(ptr noundef %22)
  %24 = call i64 @EVP_CIPHER_get_flags(ptr noundef %23)
  %25 = and i64 %24, 2097152
  %26 = icmp ne i64 %25, 0
  br i1 %26, label %29, label %27

27:                                               ; preds = %21
  %28 = load i64, ptr @eCipherError, align 8, !tbaa !6
  call void (i64, ptr, ...) @ossl_raise(i64 noundef %28, ptr noundef @.str.51) #21
  unreachable

29:                                               ; preds = %21
  %30 = load ptr, ptr %6, align 8, !tbaa !10
  %31 = load i32, ptr %5, align 4, !tbaa !22
  %32 = call i32 @EVP_CIPHER_CTX_ctrl(ptr noundef %30, i32 noundef 9, i32 noundef %31, ptr noundef null)
  %33 = icmp ne i32 %32, 0
  br i1 %33, label %36, label %34

34:                                               ; preds = %29
  %35 = load i64, ptr @eCipherError, align 8, !tbaa !6
  call void (i64, ptr, ...) @ossl_raise(i64 noundef %35, ptr noundef @.str.52) #21
  unreachable

36:                                               ; preds = %29
  %37 = load ptr, ptr %6, align 8, !tbaa !10
  %38 = load i32, ptr %5, align 4, !tbaa !22
  %39 = sext i32 %38 to i64
  %40 = inttoptr i64 %39 to ptr
  call void @EVP_CIPHER_CTX_set_app_data(ptr noundef %37, ptr noundef %40)
  %41 = load i64, ptr %4, align 8, !tbaa !6
  call void @llvm.lifetime.end.p0(i64 8, ptr %6) #20
  call void @llvm.lifetime.end.p0(i64 4, ptr %5) #20
  ret i64 %41
}