; Function Attrs: nounwind sspstrong uwtable
define internal noundef i64 @ossl_cipher_set_iv_length(i64 noundef %0, i64 noundef returned %1) #0 {
  %3 = and i64 %1, 1
  %.not.i = icmp eq i64 %3, 0
  br i1 %.not.i, label %6, label %4

4:                                                ; preds = %2
  %5 = tail call i64 @rb_fix2int(i64 noundef %1) #11
  br label %rb_num2int_inline.exit

6:                                                ; preds = %2
  %7 = tail call i64 @rb_num2int(i64 noundef %1) #11
  br label %rb_num2int_inline.exit

rb_num2int_inline.exit:                           ; preds = %4, %6
  %.0.i = phi i64 [ %5, %4 ], [ %7, %6 ]
  %8 = trunc i64 %.0.i to i32
  %9 = tail call ptr @rb_check_typeddata(i64 noundef %0, ptr noundef nonnull @ossl_cipher_type) #11
  %.not = icmp eq ptr %9, null
  br i1 %.not, label %10, label %12

10:                                               ; preds = %rb_num2int_inline.exit
  %11 = load i64, ptr @rb_eRuntimeError, align 8, !tbaa !6
  tail call void (i64, ptr, ...) @ossl_raise(i64 noundef %11, ptr noundef nonnull @.str) #12
  unreachable

12:                                               ; preds = %rb_num2int_inline.exit
  %13 = tail call ptr @EVP_CIPHER_CTX_cipher(ptr noundef nonnull %9) #11
  %14 = tail call i64 @EVP_CIPHER_get_flags(ptr noundef %13) #11
  %15 = and i64 %14, 2097152
  %.not8 = icmp eq i64 %15, 0
  br i1 %.not8, label %16, label %18

16:                                               ; preds = %12
  %17 = load i64, ptr @eCipherError, align 8, !tbaa !6
  tail call void (i64, ptr, ...) @ossl_raise(i64 noundef %17, ptr noundef nonnull @.str.51) #12
  unreachable

18:                                               ; preds = %12
  %19 = tail call i32 @EVP_CIPHER_CTX_ctrl(ptr noundef nonnull %9, i32 noundef 9, i32 noundef %8, ptr noundef null) #11
  %.not9 = icmp eq i32 %19, 0
  br i1 %.not9, label %20, label %22

20:                                               ; preds = %18
  %21 = load i64, ptr @eCipherError, align 8, !tbaa !6
  tail call void (i64, ptr, ...) @ossl_raise(i64 noundef %21, ptr noundef nonnull @.str.52) #12
  unreachable

22:                                               ; preds = %18
  %sext = shl i64 %.0.i, 32
  %23 = ashr exact i64 %sext, 32
  %24 = inttoptr i64 %23 to ptr
  tail call void @EVP_CIPHER_CTX_set_app_data(ptr noundef nonnull %9, ptr noundef %24) #11
  ret i64 %1
}